target datalayout = "e-m:e-p270:32:32-p271:32:32-p272:64:64-i64:64-i128:128-f80:128-n8:16:32:64-S128"
target triple = "x86_64-pc-linux-gnu"

%struct.PlannedStmt = type { i32, i32, i64, i8, i8, i8, i8, i8, i8, i32, ptr, ptr, ptr, ptr, ptr, ptr, ptr, ptr, ptr, ptr, ptr, ptr, ptr, ptr, i32, i32 }

@.str = private unnamed_addr constant [29 x i8] c"unrecognized commandType: %d\00", align 1
@.str.1 = private unnamed_addr constant [10 x i8] c"utility.c\00", align 1
@__func__.CommandIsReadOnly = private unnamed_addr constant [18 x i8] c"CommandIsReadOnly\00", align 1

; Function Attrs: nounwind uwtable
define dso_local zeroext i1 @CommandIsReadOnly(ptr noundef %0) #0 {
  %2 = alloca i1, align 1
  %3 = alloca ptr, align 8
  store ptr %0, ptr %3, align 8
  %4 = load ptr, ptr %3, align 8
  %5 = getelementptr inbounds nuw %struct.PlannedStmt, ptr %4, i32 0, i32 1
  %6 = load i32, ptr %5, align 4
  switch i32 %6, label %22 [
    i32 1, label %7
    i32 2, label %20
    i32 3, label %20
    i32 4, label %20
    i32 5, label %20
    i32 6, label %21
  ]

7:                                                ; preds = %1
  %8 = load ptr, ptr %3, align 8
  %9 = getelementptr inbounds nuw %struct.PlannedStmt, ptr %8, i32 0, i32 19
  %10 = load ptr, ptr %9, align 8
  %11 = icmp ne ptr %10, null
  br i1 %11, label %12, label %13

12:                                               ; preds = %7
  store i1 false, ptr %2, align 1
  br label %36

13:                                               ; preds = %7
  %14 = load ptr, ptr %3, align 8
  %15 = getelementptr inbounds nuw %struct.PlannedStmt, ptr %14, i32 0, i32 4
  %16 = load i8, ptr %15, align 1, !range !4, !noundef !5
  %17 = trunc i8 %16 to i1
  br i1 %17, label %18, label %19

18:                                               ; preds = %13
  store i1 false, ptr %2, align 1
  br label %36

19:                                               ; preds = %13
  store i1 true, ptr %2, align 1
  br label %36

20:                                               ; preds = %1, %1, %1, %1
  store i1 false, ptr %2, align 1
  br label %36

21:                                               ; preds = %1
  store i1 false, ptr %2, align 1
  br label %36

22:                                               ; preds = %1
  br label %23

23:                                               ; preds = %22
  br i1 false, label %24, label %26

24:                                               ; preds = %23
  %25 = call zeroext i1 @errstart_cold(i32 noundef 19, ptr noundef null) #10
  br i1 %25, label %28, label %33

26:                                               ; preds = %23
  %27 = call zeroext i1 @errstart(i32 noundef 19, ptr noundef null)
  br i1 %27, label %28, label %33

28:                                               ; preds = %26, %24
  %29 = load ptr, ptr %3, align 8
  %30 = getelementptr inbounds nuw %struct.PlannedStmt, ptr %29, i32 0, i32 1
  %31 = load i32, ptr %30, align 4
  %32 = call i32 (ptr, ...) @errmsg_internal(ptr noundef @.str, i32 noundef %31)
  call void @errfinish(ptr noundef @.str.1, i32 noundef 116, ptr noundef @__func__.CommandIsReadOnly)
  br label %33

33:                                               ; preds = %28, %26, %24
  br label %34

34:                                               ; preds = %33
  br label %35

35:                                               ; preds = %34
  store i1 false, ptr %2, align 1
  br label %36

36:                                               ; preds = %35, %21, %20, %19, %18, %12
  %37 = load i1, ptr %2, align 1
  ret i1 %37
}