; Function Attrs: nounwind uwtable
define dso_local zeroext i1 @CommandIsReadOnly(ptr noundef readonly captures(none) %0) local_unnamed_addr #0 {
  %2 = getelementptr inbounds nuw i8, ptr %0, i64 4
  %3 = load i32, ptr %2, align 4
  switch i32 %3, label %11 [
    i32 1, label %4
    i32 2, label %16
    i32 3, label %16
    i32 4, label %16
    i32 5, label %16
    i32 6, label %16
  ]

4:                                                ; preds = %1
  %5 = getelementptr inbounds nuw i8, ptr %0, i64 104
  %6 = load ptr, ptr %5, align 8
  %.not = icmp eq ptr %6, null
  br i1 %.not, label %7, label %16

7:                                                ; preds = %4
  %8 = getelementptr inbounds nuw i8, ptr %0, i64 17
  %9 = load i8, ptr %8, align 1, !range !4, !noundef !5
  %10 = trunc nuw i8 %9 to i1
  %not. = xor i1 %10, true
  br label %16

11:                                               ; preds = %1
  %12 = tail call zeroext i1 @errstart(i32 noundef 19, ptr noundef null) #11
  br i1 %12, label %13, label %16

13:                                               ; preds = %11
  %14 = load i32, ptr %2, align 4
  %15 = tail call i32 (ptr, ...) @errmsg_internal(ptr noundef nonnull @.str, i32 noundef %14) #11
  tail call void @errfinish(ptr noundef nonnull @.str.1, i32 noundef 116, ptr noundef nonnull @__func__.CommandIsReadOnly) #11
  br label %16

16:                                               ; preds = %11, %13, %1, %1, %1, %1, %1, %7, %4
  %.0 = phi i1 [ false, %4 ], [ %not., %7 ], [ false, %1 ], [ false, %1 ], [ false, %1 ], [ false, %1 ], [ false, %1 ], [ false, %13 ], [ false, %11 ]
  ret i1 %.0
}